target datalayout = "e-m:e-p270:32:32-p271:32:32-p272:64:64-i64:64-i128:128-f80:128-n8:16:32:64-S128"
target triple = "x86_64-pc-linux-gnu"

%struct.BuildAccumulator = type { ptr, i64, ptr, i32, ptr, %struct.RBTreeIterator }
%struct.RBTreeIterator = type { ptr, ptr, ptr, i8 }
%struct.GinEntryAccumulator = type { %struct.RBTNode, i64, i8, i16, i8, ptr, i32, i32 }
%struct.RBTNode = type { i8, ptr, ptr, ptr }
%struct.ItemPointerData = type { %struct.BlockIdData, i16 }
%struct.BlockIdData = type { i16, i16 }
%struct.GinState = type { ptr, i8, ptr, [32 x ptr], [32 x %struct.FmgrInfo], [32 x %struct.FmgrInfo], [32 x %struct.FmgrInfo], [32 x %struct.FmgrInfo], [32 x %struct.FmgrInfo], [32 x %struct.FmgrInfo], [32 x i8], [32 x i32] }
%struct.FmgrInfo = type { ptr, i32, i16, i8, i8, i8, ptr, ptr, ptr }
%struct.CompactAttribute = type { i32, i16, i8, i8, i8, i8, i8, i8, i8 }
%struct.TupleDescData = type { i32, i32, i32, i32, ptr, [0 x %struct.CompactAttribute] }

; Function Attrs: inlinehint nounwind uwtable
define internal ptr @DatumGetPointer(i64 noundef %0) #4 {
  %2 = alloca i64, align 8
  store i64 %0, ptr %2, align 8
  %3 = load i64, ptr %2, align 8
  %4 = inttoptr i64 %3 to ptr
  ret ptr %4
}

; Function Attrs: inlinehint nounwind uwtable
define internal ptr @TupleDescCompactAttr(ptr noundef %0, i32 noundef %1) #4 {
  %3 = alloca ptr, align 8
  %4 = alloca i32, align 4
  %5 = alloca ptr, align 8
  store ptr %0, ptr %3, align 8
  store i32 %1, ptr %4, align 4
  call void @llvm.lifetime.start.p0(i64 8, ptr %5) #6
  %6 = load ptr, ptr %3, align 8
  %7 = getelementptr inbounds nuw %struct.TupleDescData, ptr %6, i32 0, i32 5
  %8 = load i32, ptr %4, align 4
  %9 = sext i32 %8 to i64
  %10 = getelementptr inbounds [0 x %struct.CompactAttribute], ptr %7, i64 0, i64 %9
  store ptr %10, ptr %5, align 8
  %11 = load ptr, ptr %5, align 8
  call void @llvm.lifetime.end.p0(i64 8, ptr %5) #6
  ret ptr %11
}

; Function Attrs: nounwind uwtable
define internal i64 @getDatumCopy(ptr noundef %0, i16 noundef zeroext %1, i64 noundef %2) #0 {
  %4 = alloca ptr, align 8
  %5 = alloca i16, align 2
  %6 = alloca i64, align 8
  %7 = alloca ptr, align 8
  %8 = alloca i64, align 8
  store ptr %0, ptr %4, align 8
  store i16 %1, ptr %5, align 2
  store i64 %2, ptr %6, align 8
  call void @llvm.lifetime.start.p0(i64 8, ptr %7) #6
  call void @llvm.lifetime.start.p0(i64 8, ptr %8) #6
  %9 = load ptr, ptr %4, align 8
  %10 = getelementptr inbounds nuw %struct.BuildAccumulator, ptr %9, i32 0, i32 0
  %11 = load ptr, ptr %10, align 8
  %12 = getelementptr inbounds nuw %struct.GinState, ptr %11, i32 0, i32 2
  %13 = load ptr, ptr %12, align 8
  %14 = load i16, ptr %5, align 2
  %15 = zext i16 %14 to i32
  %16 = sub i32 %15, 1
  %17 = call ptr @TupleDescCompactAttr(ptr noundef %13, i32 noundef %16)
  store ptr %17, ptr %7, align 8
  %18 = load ptr, ptr %7, align 8
  %19 = getelementptr inbounds nuw %struct.CompactAttribute, ptr %18, i32 0, i32 2
  %20 = load i8, ptr %19, align 2, !range !4, !noundef !5
  %21 = trunc i8 %20 to i1
  br i1 %21, label %22, label %24

22:                                               ; preds = %3
  %23 = load i64, ptr %6, align 8
  store i64 %23, ptr %8, align 8
  br label %38

24:                                               ; preds = %3
  %25 = load i64, ptr %6, align 8
  %26 = load ptr, ptr %7, align 8
  %27 = getelementptr inbounds nuw %struct.CompactAttribute, ptr %26, i32 0, i32 1
  %28 = load i16, ptr %27, align 4
  %29 = sext i16 %28 to i32
  %30 = call i64 @datumCopy(i64 noundef %25, i1 noundef zeroext false, i32 noundef %29)
  store i64 %30, ptr %8, align 8
  %31 = load i64, ptr %8, align 8
  %32 = call ptr @DatumGetPointer(i64 noundef %31)
  %33 = call i64 @GetMemoryChunkSpace(ptr noundef %32)
  %34 = load ptr, ptr %4, align 8
  %35 = getelementptr inbounds nuw %struct.BuildAccumulator, ptr %34, i32 0, i32 1
  %36 = load i64, ptr %35, align 8
  %37 = add i64 %36, %33
  store i64 %37, ptr %35, align 8
  br label %38

38:                                               ; preds = %24, %22
  %39 = load i64, ptr %8, align 8
  call void @llvm.lifetime.end.p0(i64 8, ptr %8) #6
  call void @llvm.lifetime.end.p0(i64 8, ptr %7) #6
  ret i64 %39
}

; Function Attrs: nounwind uwtable
define internal void @ginInsertBAEntry(ptr noundef %0, ptr noundef %1, i16 noundef zeroext %2, i64 noundef %3, i8 noundef signext %4) #0 {
  %6 = alloca ptr, align 8
  %7 = alloca ptr, align 8
  %8 = alloca i16, align 2
  %9 = alloca i64, align 8
  %10 = alloca i8, align 1
  %11 = alloca %struct.GinEntryAccumulator, align 8
  %12 = alloca ptr, align 8
  %13 = alloca i8, align 1
  store ptr %0, ptr %6, align 8
  store ptr %1, ptr %7, align 8
  store i16 %2, ptr %8, align 2
  store i64 %3, ptr %9, align 8
  store i8 %4, ptr %10, align 1
  call void @llvm.lifetime.start.p0(i64 64, ptr %11) #6
  call void @llvm.lifetime.start.p0(i64 8, ptr %12) #6
  call void @llvm.lifetime.start.p0(i64 1, ptr %13) #6
  %14 = load i16, ptr %8, align 2
  %15 = getelementptr inbounds nuw %struct.GinEntryAccumulator, ptr %11, i32 0, i32 3
  store i16 %14, ptr %15, align 2
  %16 = load i64, ptr %9, align 8
  %17 = getelementptr inbounds nuw %struct.GinEntryAccumulator, ptr %11, i32 0, i32 1
  store i64 %16, ptr %17, align 8
  %18 = load i8, ptr %10, align 1
  %19 = getelementptr inbounds nuw %struct.GinEntryAccumulator, ptr %11, i32 0, i32 2
  store i8 %18, ptr %19, align 8
  %20 = load ptr, ptr %7, align 8
  %21 = getelementptr inbounds nuw %struct.GinEntryAccumulator, ptr %11, i32 0, i32 5
  store ptr %20, ptr %21, align 8
  %22 = load ptr, ptr %6, align 8
  %23 = getelementptr inbounds nuw %struct.BuildAccumulator, ptr %22, i32 0, i32 4
  %24 = load ptr, ptr %23, align 8
  %25 = call ptr @rbt_insert(ptr noundef %24, ptr noundef %11, ptr noundef %13)
  store ptr %25, ptr %12, align 8
  %26 = load i8, ptr %13, align 1, !range !4, !noundef !5
  %27 = trunc i8 %26 to i1
  br i1 %27, label %28, label %62

28:                                               ; preds = %5
  %29 = load i8, ptr %10, align 1
  %30 = sext i8 %29 to i32
  %31 = icmp eq i32 %30, 0
  br i1 %31, label %32, label %39

32:                                               ; preds = %28
  %33 = load ptr, ptr %6, align 8
  %34 = load i16, ptr %8, align 2
  %35 = load i64, ptr %9, align 8
  %36 = call i64 @getDatumCopy(ptr noundef %33, i16 noundef zeroext %34, i64 noundef %35)
  %37 = load ptr, ptr %12, align 8
  %38 = getelementptr inbounds nuw %struct.GinEntryAccumulator, ptr %37, i32 0, i32 1
  store i64 %36, ptr %38, align 8
  br label %39

39:                                               ; preds = %32, %28
  %40 = load ptr, ptr %12, align 8
  %41 = getelementptr inbounds nuw %struct.GinEntryAccumulator, ptr %40, i32 0, i32 6
  store i32 5, ptr %41, align 8
  %42 = load ptr, ptr %12, align 8
  %43 = getelementptr inbounds nuw %struct.GinEntryAccumulator, ptr %42, i32 0, i32 7
  store i32 1, ptr %43, align 4
  %44 = load ptr, ptr %12, align 8
  %45 = getelementptr inbounds nuw %struct.GinEntryAccumulator, ptr %44, i32 0, i32 4
  store i8 0, ptr %45, align 4
  %46 = call ptr @palloc(i64 noundef 30)
  %47 = load ptr, ptr %12, align 8
  %48 = getelementptr inbounds nuw %struct.GinEntryAccumulator, ptr %47, i32 0, i32 5
  store ptr %46, ptr %48, align 8
  %49 = load ptr, ptr %12, align 8
  %50 = getelementptr inbounds nuw %struct.GinEntryAccumulator, ptr %49, i32 0, i32 5
  %51 = load ptr, ptr %50, align 8
  %52 = getelementptr inbounds %struct.ItemPointerData, ptr %51, i64 0
  %53 = load ptr, ptr %7, align 8
  call void @llvm.memcpy.p0.p0.i64(ptr align 2 %52, ptr align 2 %53, i64 6, i1 false)
  %54 = load ptr, ptr %12, align 8
  %55 = getelementptr inbounds nuw %struct.GinEntryAccumulator, ptr %54, i32 0, i32 5
  %56 = load ptr, ptr %55, align 8
  %57 = call i64 @GetMemoryChunkSpace(ptr noundef %56)
  %58 = load ptr, ptr %6, align 8
  %59 = getelementptr inbounds nuw %struct.BuildAccumulator, ptr %58, i32 0, i32 1
  %60 = load i64, ptr %59, align 8
  %61 = add i64 %60, %57
  store i64 %61, ptr %59, align 8
  br label %63

62:                                               ; preds = %5
  br label %63

63:                                               ; preds = %62, %39
  call void @llvm.lifetime.end.p0(i64 1, ptr %13) #6
  call void @llvm.lifetime.end.p0(i64 8, ptr %12) #6
  call void @llvm.lifetime.end.p0(i64 64, ptr %11) #6
  ret void
}

; Function Attrs: nounwind uwtable
define dso_local void @ginInsertBAEntries(ptr noundef %0, ptr noundef %1, i16 noundef zeroext %2, ptr noundef %3, ptr noundef %4, i32 noundef %5) #0 {
  %7 = alloca ptr, align 8
  %8 = alloca ptr, align 8
  %9 = alloca i16, align 2
  %10 = alloca ptr, align 8
  %11 = alloca ptr, align 8
  %12 = alloca i32, align 4
  %13 = alloca i32, align 4
  %14 = alloca i32, align 4
  %15 = alloca i32, align 4
  store ptr %0, ptr %7, align 8
  store ptr %1, ptr %8, align 8
  store i16 %2, ptr %9, align 2
  store ptr %3, ptr %10, align 8
  store ptr %4, ptr %11, align 8
  store i32 %5, ptr %12, align 4
  call void @llvm.lifetime.start.p0(i64 4, ptr %13) #6
  %16 = load i32, ptr %12, align 4
  store i32 %16, ptr %13, align 4
  %17 = load i32, ptr %12, align 4
  %18 = icmp sle i32 %17, 0
  br i1 %18, label %19, label %20

19:                                               ; preds = %6
  store i32 1, ptr %14, align 4
  br label %83

20:                                               ; preds = %6
  %21 = load i32, ptr %13, align 4
  %22 = lshr i32 %21, 1
  %23 = load i32, ptr %13, align 4
  %24 = or i32 %23, %22
  store i32 %24, ptr %13, align 4
  %25 = load i32, ptr %13, align 4
  %26 = lshr i32 %25, 2
  %27 = load i32, ptr %13, align 4
  %28 = or i32 %27, %26
  store i32 %28, ptr %13, align 4
  %29 = load i32, ptr %13, align 4
  %30 = lshr i32 %29, 4
  %31 = load i32, ptr %13, align 4
  %32 = or i32 %31, %30
  store i32 %32, ptr %13, align 4
  %33 = load i32, ptr %13, align 4
  %34 = lshr i32 %33, 8
  %35 = load i32, ptr %13, align 4
  %36 = or i32 %35, %34
  store i32 %36, ptr %13, align 4
  %37 = load i32, ptr %13, align 4
  %38 = lshr i32 %37, 16
  %39 = load i32, ptr %13, align 4
  %40 = or i32 %39, %38
  store i32 %40, ptr %13, align 4
  %41 = load i32, ptr %13, align 4
  %42 = lshr i32 %41, 1
  store i32 %42, ptr %13, align 4
  %43 = load i32, ptr %13, align 4
  %44 = add i32 %43, 1
  store i32 %44, ptr %13, align 4
  br label %45

45:                                               ; preds = %79, %20
  %46 = load i32, ptr %13, align 4
  %47 = icmp ugt i32 %46, 0
  br i1 %47, label %48, label %82

48:                                               ; preds = %45
  call void @llvm.lifetime.start.p0(i64 4, ptr %15) #6
  %49 = load i32, ptr %13, align 4
  %50 = sub i32 %49, 1
  store i32 %50, ptr %15, align 4
  br label %51

51:                                               ; preds = %74, %48
  %52 = load i32, ptr %15, align 4
  %53 = load i32, ptr %12, align 4
  %54 = icmp slt i32 %52, %53
  br i1 %54, label %55, label %58

55:                                               ; preds = %51
  %56 = load i32, ptr %15, align 4
  %57 = icmp sge i32 %56, 0
  br label %58

58:                                               ; preds = %55, %51
  %59 = phi i1 [ false, %51 ], [ %57, %55 ]
  br i1 %59, label %60, label %79

60:                                               ; preds = %58
  %61 = load ptr, ptr %7, align 8
  %62 = load ptr, ptr %8, align 8
  %63 = load i16, ptr %9, align 2
  %64 = load ptr, ptr %10, align 8
  %65 = load i32, ptr %15, align 4
  %66 = sext i32 %65 to i64
  %67 = getelementptr inbounds i64, ptr %64, i64 %66
  %68 = load i64, ptr %67, align 8
  %69 = load ptr, ptr %11, align 8
  %70 = load i32, ptr %15, align 4
  %71 = sext i32 %70 to i64
  %72 = getelementptr inbounds i8, ptr %69, i64 %71
  %73 = load i8, ptr %72, align 1
  call void @ginInsertBAEntry(ptr noundef %61, ptr noundef %62, i16 noundef zeroext %63, i64 noundef %68, i8 noundef signext %73)
  br label %74

74:                                               ; preds = %60
  %75 = load i32, ptr %13, align 4
  %76 = shl i32 %75, 1
  %77 = load i32, ptr %15, align 4
  %78 = add i32 %77, %76
  store i32 %78, ptr %15, align 4
  br label %51, !llvm.loop !6

79:                                               ; preds = %58
  %80 = load i32, ptr %13, align 4
  %81 = lshr i32 %80, 1
  store i32 %81, ptr %13, align 4
  call void @llvm.lifetime.end.p0(i64 4, ptr %15) #6
  br label %45, !llvm.loop !8

82:                                               ; preds = %45
  store i32 0, ptr %14, align 4
  br label %83

83:                                               ; preds = %82, %19
  call void @llvm.lifetime.end.p0(i64 4, ptr %13) #6
  %84 = load i32, ptr %14, align 4
  switch i32 %84, label %86 [
    i32 0, label %85
    i32 1, label %85
  ]

85:                                               ; preds = %83, %83
  ret void

86:                                               ; preds = %83
  unreachable
}