; Function Attrs: nounwind uwtable
define dso_local void @ginInsertBAEntries(ptr noundef captures(none) %0, ptr noundef %1, i16 noundef zeroext %2, ptr noundef readonly captures(none) %3, ptr noundef readonly captures(none) %4, i32 noundef %5) local_unnamed_addr #0 {
  %7 = alloca %struct.GinEntryAccumulator, align 8
  %8 = alloca i8, align 1
  %9 = icmp slt i32 %5, 1
  br i1 %9, label %.loopexit, label %10

10:                                               ; preds = %6
  %11 = lshr i32 %5, 1
  %12 = or i32 %11, %5
  %13 = lshr i32 %12, 2
  %14 = or i32 %13, %12
  %15 = lshr i32 %14, 4
  %16 = or i32 %15, %14
  %17 = lshr i32 %16, 8
  %18 = or i32 %17, %16
  %19 = lshr i32 %18, 17
  %20 = lshr i32 %18, 1
  %21 = or i32 %19, %20
  %22 = add nuw nsw i32 %21, 1
  %23 = getelementptr inbounds nuw i8, ptr %7, i64 42
  %24 = getelementptr inbounds nuw i8, ptr %7, i64 32
  %25 = getelementptr inbounds nuw i8, ptr %7, i64 40
  %26 = getelementptr inbounds nuw i8, ptr %7, i64 48
  %27 = getelementptr inbounds nuw i8, ptr %0, i64 32
  %28 = zext i16 %2 to i64
  %29 = add nsw i64 %28, -1
  %30 = getelementptr inbounds nuw i8, ptr %0, i64 8
  %31 = zext nneg i32 %5 to i64
  br label %32

32:                                               ; preds = %10, %._crit_edge
  %.02831 = phi i32 [ %22, %10 ], [ %79, %._crit_edge ]
  %33 = add nsw i32 %.02831, -1
  %34 = icmp ult i32 %33, %5
  br i1 %34, label %.lr.ph, label %._crit_edge

.lr.ph:                                           ; preds = %32
  %35 = zext nneg i32 %33 to i64
  %36 = shl nuw i32 %.02831, 1
  %37 = zext i32 %36 to i64
  br label %38

38:                                               ; preds = %.lr.ph, %ginInsertBAEntry.exit
  %indvars.iv = phi i64 [ %35, %.lr.ph ], [ %indvars.iv.next, %ginInsertBAEntry.exit ]
  %39 = getelementptr inbounds nuw i64, ptr %3, i64 %indvars.iv
  %40 = load i64, ptr %39, align 8
  %41 = getelementptr inbounds nuw i8, ptr %4, i64 %indvars.iv
  %42 = load i8, ptr %41, align 1
  call void @llvm.lifetime.start.p0(i64 64, ptr nonnull %7) #9
  call void @llvm.lifetime.start.p0(i64 1, ptr nonnull %8) #9
  store i16 %2, ptr %23, align 2
  store i64 %40, ptr %24, align 8
  store i8 %42, ptr %25, align 8
  store ptr %1, ptr %26, align 8
  %43 = load ptr, ptr %27, align 8
  %44 = call ptr @rbt_insert(ptr noundef %43, ptr noundef nonnull %7, ptr noundef nonnull %8) #9
  %45 = load i8, ptr %8, align 1, !range !4, !noundef !5
  %46 = trunc nuw i8 %45 to i1
  br i1 %46, label %47, label %ginInsertBAEntry.exit

47:                                               ; preds = %38
  %48 = icmp eq i8 %42, 0
  br i1 %48, label %49, label %68

49:                                               ; preds = %47
  %50 = load ptr, ptr %0, align 8
  %51 = getelementptr inbounds nuw i8, ptr %50, i64 16
  %52 = load ptr, ptr %51, align 8
  %53 = getelementptr inbounds nuw i8, ptr %52, i64 24
  %54 = getelementptr inbounds [0 x %struct.CompactAttribute], ptr %53, i64 0, i64 %29
  %55 = getelementptr inbounds nuw i8, ptr %54, i64 6
  %56 = load i8, ptr %55, align 2, !range !4, !noundef !5
  %57 = trunc nuw i8 %56 to i1
  br i1 %57, label %getDatumCopy.exit.i, label %58

58:                                               ; preds = %49
  %59 = getelementptr inbounds nuw i8, ptr %54, i64 4
  %60 = load i16, ptr %59, align 4
  %61 = sext i16 %60 to i32
  %62 = call i64 @datumCopy(i64 noundef %40, i1 noundef zeroext false, i32 noundef %61) #9
  %63 = inttoptr i64 %62 to ptr
  %64 = call i64 @GetMemoryChunkSpace(ptr noundef %63) #9
  %65 = load i64, ptr %30, align 8
  %66 = add i64 %65, %64
  store i64 %66, ptr %30, align 8
  br label %getDatumCopy.exit.i

getDatumCopy.exit.i:                              ; preds = %58, %49
  %.0.i.i = phi i64 [ %62, %58 ], [ %40, %49 ]
  %67 = getelementptr inbounds nuw i8, ptr %44, i64 32
  store i64 %.0.i.i, ptr %67, align 8
  br label %68

68:                                               ; preds = %getDatumCopy.exit.i, %47
  %69 = getelementptr inbounds nuw i8, ptr %44, i64 56
  store i32 5, ptr %69, align 8
  %70 = getelementptr inbounds nuw i8, ptr %44, i64 60
  store i32 1, ptr %70, align 4
  %71 = getelementptr inbounds nuw i8, ptr %44, i64 44
  store i8 0, ptr %71, align 4
  %72 = call ptr @palloc(i64 noundef 30) #9
  %73 = getelementptr inbounds nuw i8, ptr %44, i64 48
  store ptr %72, ptr %73, align 8
  call void @llvm.memcpy.p0.p0.i64(ptr noundef nonnull align 2 dereferenceable(6) %72, ptr noundef nonnull align 2 dereferenceable(6) %1, i64 6, i1 false)
  %74 = load ptr, ptr %73, align 8
  %75 = call i64 @GetMemoryChunkSpace(ptr noundef %74) #9
  %76 = load i64, ptr %30, align 8
  %77 = add i64 %76, %75
  store i64 %77, ptr %30, align 8
  br label %ginInsertBAEntry.exit

ginInsertBAEntry.exit:                            ; preds = %38, %68
  call void @llvm.lifetime.end.p0(i64 1, ptr nonnull %8) #9
  call void @llvm.lifetime.end.p0(i64 64, ptr nonnull %7) #9
  %indvars.iv.next = add nuw i64 %indvars.iv, %37
  %78 = icmp ult i64 %indvars.iv.next, %31
  br i1 %78, label %38, label %._crit_edge, !llvm.loop !6

._crit_edge:                                      ; preds = %ginInsertBAEntry.exit, %32
  %79 = lshr i32 %.02831, 1
  %.not = icmp samesign ult i32 %.02831, 2
  br i1 %.not, label %.loopexit, label %32, !llvm.loop !8

.loopexit:                                        ; preds = %._crit_edge, %6
  ret void
}